target datalayout = "e-m:e-p270:32:32-p271:32:32-p272:64:64-i64:64-i128:128-f80:128-n8:16:32:64-S128"
target triple = "x86_64-unknown-linux-gnu"

%"class.v8::IndirectHandleBase" = type { ptr }
%"class.node::MemoryRetainer" = type { ptr }
%"class.node::ListNode" = type { ptr, ptr }
%"class.node::HandleWrap" = type { %"class.node::AsyncWrap", i32, %"class.node::ListNode", ptr }
%"class.node::AsyncWrap" = type { %"class.node::BaseObject", i32, i8, double, double }
%"class.node::BaseObject" = type { %"class.node::MemoryRetainer", %"class.v8::Global.278", ptr, ptr }
%"class.v8::Global.278" = type { %"class.v8::PersistentBase.279" }
%"class.v8::PersistentBase.279" = type { %"class.v8::IndirectHandleBase" }

; Function Attrs: mustprogress nounwind uwtable
define linkonce_odr dso_local noundef zeroext i1 @_ZN4node10HandleWrap7IsAliveEPKS0_(ptr noundef %wrap) #4 comdat align 2 {
entry:
  %wrap.addr = alloca ptr, align 8
  store ptr %wrap, ptr %wrap.addr, align 8
  %0 = load ptr, ptr %wrap.addr, align 8
  %cmp = icmp ne ptr %0, null
  br i1 %cmp, label %land.lhs.true, label %land.end

land.lhs.true:                                    ; preds = %entry
  %1 = load ptr, ptr %wrap.addr, align 8
  %vtable = load ptr, ptr %1, align 8
  %vfn = getelementptr inbounds ptr, ptr %vtable, i64 8
  %2 = load ptr, ptr %vfn, align 8
  %call = call noundef zeroext i1 %2(ptr noundef nonnull align 8 dereferenceable(56) %1)
  br i1 %call, label %land.rhs, label %land.end

land.rhs:                                         ; preds = %land.lhs.true
  %3 = load ptr, ptr %wrap.addr, align 8
  %state_ = getelementptr inbounds %"class.node::HandleWrap", ptr %3, i32 0, i32 1
  %4 = load i32, ptr %state_, align 8
  %cmp1 = icmp ne i32 %4, 2
  br label %land.end

land.end:                                         ; preds = %land.rhs, %land.lhs.true, %entry
  %5 = phi i1 [ false, %land.lhs.true ], [ false, %entry ], [ %cmp1, %land.rhs ]
  ret i1 %5
}

; Function Attrs: mustprogress nounwind uwtable
define dso_local noundef zeroext i1 @_ZN4node15LibuvStreamWrap7IsAliveEv(ptr noundef nonnull align 8 dereferenceable(160) %this) unnamed_addr #4 align 2 {
entry:
  %this.addr = alloca ptr, align 8
  store ptr %this, ptr %this.addr, align 8
  %this1 = load ptr, ptr %this.addr, align 8
  %call = call noundef zeroext i1 @_ZN4node10HandleWrap7IsAliveEPKS0_(ptr noundef %this1)
  ret i1 %call
}

; Function Attrs: nounwind uwtable
define dso_local noundef zeroext i1 @_ZThn88_N4node15LibuvStreamWrap7IsAliveEv(ptr noundef %this) unnamed_addr #0 align 2 {
entry:
  %this.addr = alloca ptr, align 8
  store ptr %this, ptr %this.addr, align 8
  %this1 = load ptr, ptr %this.addr, align 8
  %0 = getelementptr inbounds i8, ptr %this1, i64 -88
  %call = tail call noundef zeroext i1 @_ZN4node15LibuvStreamWrap7IsAliveEv(ptr noundef nonnull align 8 dereferenceable(160) %0)
  ret i1 %call
}