; Function Attrs: nounwind uwtable
define dso_local noundef zeroext i1 @_ZThn88_N4node15LibuvStreamWrap7IsAliveEv(ptr noundef %this) unnamed_addr #6 align 2 {
entry:
  %0 = getelementptr inbounds i8, ptr %this, i64 -88
  %vtable.i.i = load ptr, ptr %0, align 8
  %vfn.i.i = getelementptr inbounds i8, ptr %vtable.i.i, i64 64
  %1 = load ptr, ptr %vfn.i.i, align 8
  %call.i.i = tail call noundef zeroext i1 %1(ptr noundef nonnull align 8 dereferenceable(56) %0) #17
  %state_.i.i = getelementptr inbounds i8, ptr %this, i64 -32
  %2 = load i32, ptr %state_.i.i, align 8
  %cmp1.i.i = icmp ne i32 %2, 2
  %3 = select i1 %call.i.i, i1 %cmp1.i.i, i1 false
  ret i1 %3
}